; Function Attrs: nounwind uwtable
define noalias nonnull ptr @l_Std_Time_Internal_Bounded_cast___boxed(ptr noundef readnone captures(none) %0, ptr noundef %1, ptr noundef %2, ptr noundef %3, ptr noundef %4, ptr noundef readnone captures(none) %5, ptr noundef readnone captures(none) %6) local_unnamed_addr #1 {
  tail call void @lean_inc_heartbeat() #5
  %8 = tail call noalias ptr @mi_malloc_small(i64 noundef 24) #5
  %9 = icmp eq ptr %8, null
  br i1 %9, label %10, label %l_Std_Time_Internal_Bounded_cast.exit

10:                                               ; preds = %7
  tail call void @lean_internal_panic_out_of_memory() #6
  unreachable

l_Std_Time_Internal_Bounded_cast.exit:            ; preds = %7
  %11 = getelementptr inbounds nuw i8, ptr %8, i64 4
  store i32 1, ptr %8, align 4, !tbaa !4
  store i32 -184549352, ptr %11, align 4
  %12 = getelementptr inbounds nuw i8, ptr %8, i64 8
  store ptr @l_Std_Time_Internal_Bounded_cast___rarg___boxed, ptr %12, align 8, !tbaa !12
  %13 = getelementptr inbounds nuw i8, ptr %8, i64 16
  store i16 1, ptr %13, align 8, !tbaa !14
  %14 = getelementptr inbounds nuw i8, ptr %8, i64 18
  store i16 0, ptr %14, align 2, !tbaa !14
  %15 = ptrtoint ptr %4 to i64
  %16 = and i64 %15, 1
  %.not = icmp eq i64 %16, 0
  br i1 %.not, label %17, label %lean_dec.exit14

17:                                               ; preds = %l_Std_Time_Internal_Bounded_cast.exit
  %18 = load i32, ptr %4, align 4, !tbaa !4
  %19 = icmp sgt i32 %18, 1
  br i1 %19, label %20, label %22, !prof !9

20:                                               ; preds = %17
  %21 = add nsw i32 %18, -1
  store i32 %21, ptr %4, align 4, !tbaa !4
  br label %lean_dec.exit14

22:                                               ; preds = %17
  %.not.i = icmp eq i32 %18, 0
  br i1 %.not.i, label %lean_dec.exit14, label %23

23:                                               ; preds = %22
  tail call void @lean_dec_ref_cold(ptr noundef nonnull %4) #5
  br label %lean_dec.exit14

lean_dec.exit14:                                  ; preds = %23, %22, %20, %l_Std_Time_Internal_Bounded_cast.exit
  %24 = ptrtoint ptr %3 to i64
  %25 = and i64 %24, 1
  %.not21 = icmp eq i64 %25, 0
  br i1 %.not21, label %26, label %lean_dec.exit13

26:                                               ; preds = %lean_dec.exit14
  %27 = load i32, ptr %3, align 4, !tbaa !4
  %28 = icmp sgt i32 %27, 1
  br i1 %28, label %29, label %31, !prof !9

29:                                               ; preds = %26
  %30 = add nsw i32 %27, -1
  store i32 %30, ptr %3, align 4, !tbaa !4
  br label %lean_dec.exit13

31:                                               ; preds = %26
  %.not.i15 = icmp eq i32 %27, 0
  br i1 %.not.i15, label %lean_dec.exit13, label %32

32:                                               ; preds = %31
  tail call void @lean_dec_ref_cold(ptr noundef nonnull %3) #5
  br label %lean_dec.exit13

lean_dec.exit13:                                  ; preds = %32, %31, %29, %lean_dec.exit14
  %33 = ptrtoint ptr %2 to i64
  %34 = and i64 %33, 1
  %.not22 = icmp eq i64 %34, 0
  br i1 %.not22, label %35, label %lean_dec.exit12

35:                                               ; preds = %lean_dec.exit13
  %36 = load i32, ptr %2, align 4, !tbaa !4
  %37 = icmp sgt i32 %36, 1
  br i1 %37, label %38, label %40, !prof !9

38:                                               ; preds = %35
  %39 = add nsw i32 %36, -1
  store i32 %39, ptr %2, align 4, !tbaa !4
  br label %lean_dec.exit12

40:                                               ; preds = %35
  %.not.i17 = icmp eq i32 %36, 0
  br i1 %.not.i17, label %lean_dec.exit12, label %41

41:                                               ; preds = %40
  tail call void @lean_dec_ref_cold(ptr noundef nonnull %2) #5
  br label %lean_dec.exit12

lean_dec.exit12:                                  ; preds = %41, %40, %38, %lean_dec.exit13
  %42 = ptrtoint ptr %1 to i64
  %43 = and i64 %42, 1
  %.not23 = icmp eq i64 %43, 0
  br i1 %.not23, label %44, label %lean_dec.exit

44:                                               ; preds = %lean_dec.exit12
  %45 = load i32, ptr %1, align 4, !tbaa !4
  %46 = icmp sgt i32 %45, 1
  br i1 %46, label %47, label %49, !prof !9

47:                                               ; preds = %44
  %48 = add nsw i32 %45, -1
  store i32 %48, ptr %1, align 4, !tbaa !4
  br label %lean_dec.exit

49:                                               ; preds = %44
  %.not.i19 = icmp eq i32 %45, 0
  br i1 %.not.i19, label %lean_dec.exit, label %50

50:                                               ; preds = %49
  tail call void @lean_dec_ref_cold(ptr noundef nonnull %1) #5
  br label %lean_dec.exit

lean_dec.exit:                                    ; preds = %50, %49, %47, %lean_dec.exit12
  ret ptr %8
}